
lab3_spi_digital2.elf:     file format elf32-avr

Sections:
Idx Name          Size      VMA       LMA       File off  Algn
  0 .data         0000002e  00800100  000004be  00000552  2**0
                  CONTENTS, ALLOC, LOAD, DATA
  1 .text         000004be  00000000  00000000  00000094  2**1
                  CONTENTS, ALLOC, LOAD, READONLY, CODE
  2 .bss          00000019  0080012e  0080012e  00000580  2**0
                  ALLOC
  3 .comment      00000030  00000000  00000000  00000580  2**0
                  CONTENTS, READONLY
  4 .note.gnu.avr.deviceinfo 00000040  00000000  00000000  000005b0  2**2
                  CONTENTS, READONLY
  5 .debug_aranges 000000a8  00000000  00000000  000005f0  2**0
                  CONTENTS, READONLY, DEBUGGING
  6 .debug_info   00000eb3  00000000  00000000  00000698  2**0
                  CONTENTS, READONLY, DEBUGGING
  7 .debug_abbrev 000009ad  00000000  00000000  0000154b  2**0
                  CONTENTS, READONLY, DEBUGGING
  8 .debug_line   000007ca  00000000  00000000  00001ef8  2**0
                  CONTENTS, READONLY, DEBUGGING
  9 .debug_frame  00000154  00000000  00000000  000026c4  2**2
                  CONTENTS, READONLY, DEBUGGING
 10 .debug_str    00000706  00000000  00000000  00002818  2**0
                  CONTENTS, READONLY, DEBUGGING
 11 .debug_loc    0000036f  00000000  00000000  00002f1e  2**0
                  CONTENTS, READONLY, DEBUGGING
 12 .debug_ranges 00000078  00000000  00000000  0000328d  2**0
                  CONTENTS, READONLY, DEBUGGING

Disassembly of section .text:

00000000 <__vectors>:
   0:	0c 94 3b 00 	jmp	0x76	; 0x76 <__ctors_end>
   4:	0c 94 58 00 	jmp	0xb0	; 0xb0 <__bad_interrupt>
   8:	0c 94 58 00 	jmp	0xb0	; 0xb0 <__bad_interrupt>
   c:	0c 94 58 00 	jmp	0xb0	; 0xb0 <__bad_interrupt>
  10:	0c 94 58 00 	jmp	0xb0	; 0xb0 <__bad_interrupt>
  14:	0c 94 58 00 	jmp	0xb0	; 0xb0 <__bad_interrupt>
  18:	0c 94 58 00 	jmp	0xb0	; 0xb0 <__bad_interrupt>
  1c:	0c 94 58 00 	jmp	0xb0	; 0xb0 <__bad_interrupt>
  20:	0c 94 58 00 	jmp	0xb0	; 0xb0 <__bad_interrupt>
  24:	0c 94 58 00 	jmp	0xb0	; 0xb0 <__bad_interrupt>
  28:	0c 94 58 00 	jmp	0xb0	; 0xb0 <__bad_interrupt>
  2c:	0c 94 58 00 	jmp	0xb0	; 0xb0 <__bad_interrupt>
  30:	0c 94 58 00 	jmp	0xb0	; 0xb0 <__bad_interrupt>
  34:	0c 94 58 00 	jmp	0xb0	; 0xb0 <__bad_interrupt>
  38:	0c 94 58 00 	jmp	0xb0	; 0xb0 <__bad_interrupt>
  3c:	0c 94 58 00 	jmp	0xb0	; 0xb0 <__bad_interrupt>
  40:	0c 94 58 00 	jmp	0xb0	; 0xb0 <__bad_interrupt>
  44:	0c 94 58 00 	jmp	0xb0	; 0xb0 <__bad_interrupt>
  48:	0c 94 12 01 	jmp	0x224	; 0x224 <__vector_18>
  4c:	0c 94 58 00 	jmp	0xb0	; 0xb0 <__bad_interrupt>
  50:	0c 94 58 00 	jmp	0xb0	; 0xb0 <__bad_interrupt>
  54:	0c 94 58 00 	jmp	0xb0	; 0xb0 <__bad_interrupt>
  58:	0c 94 58 00 	jmp	0xb0	; 0xb0 <__bad_interrupt>
  5c:	0c 94 58 00 	jmp	0xb0	; 0xb0 <__bad_interrupt>
  60:	0c 94 58 00 	jmp	0xb0	; 0xb0 <__bad_interrupt>
  64:	0c 94 58 00 	jmp	0xb0	; 0xb0 <__bad_interrupt>
  68:	86 01       	movw	r16, r12
  6a:	8d 01       	movw	r16, r26
  6c:	94 01       	movw	r18, r8
  6e:	9e 01       	movw	r18, r28
  70:	a8 01       	movw	r20, r16
  72:	b2 01       	movw	r22, r4
  74:	bc 01       	movw	r22, r24

00000076 <__ctors_end>:
  76:	11 24       	eor	r1, r1
  78:	1f be       	out	0x3f, r1	; 63
  7a:	cf ef       	ldi	r28, 0xFF	; 255
  7c:	d8 e0       	ldi	r29, 0x08	; 8
  7e:	de bf       	out	0x3e, r29	; 62
  80:	cd bf       	out	0x3d, r28	; 61

00000082 <__do_copy_data>:
  82:	11 e0       	ldi	r17, 0x01	; 1
  84:	a0 e0       	ldi	r26, 0x00	; 0
  86:	b1 e0       	ldi	r27, 0x01	; 1
  88:	ee eb       	ldi	r30, 0xBE	; 190
  8a:	f4 e0       	ldi	r31, 0x04	; 4
  8c:	02 c0       	rjmp	.+4      	; 0x92 <__do_copy_data+0x10>
  8e:	05 90       	lpm	r0, Z+
  90:	0d 92       	st	X+, r0
  92:	ae 32       	cpi	r26, 0x2E	; 46
  94:	b1 07       	cpc	r27, r17
  96:	d9 f7       	brne	.-10     	; 0x8e <__do_copy_data+0xc>

00000098 <__do_clear_bss>:
  98:	21 e0       	ldi	r18, 0x01	; 1
  9a:	ae e2       	ldi	r26, 0x2E	; 46
  9c:	b1 e0       	ldi	r27, 0x01	; 1
  9e:	01 c0       	rjmp	.+2      	; 0xa2 <.do_clear_bss_start>

000000a0 <.do_clear_bss_loop>:
  a0:	1d 92       	st	X+, r1

000000a2 <.do_clear_bss_start>:
  a2:	a7 34       	cpi	r26, 0x47	; 71
  a4:	b2 07       	cpc	r27, r18
  a6:	e1 f7       	brne	.-8      	; 0xa0 <.do_clear_bss_loop>
  a8:	0e 94 b8 00 	call	0x170	; 0x170 <main>
  ac:	0c 94 5d 02 	jmp	0x4ba	; 0x4ba <_exit>

000000b0 <__bad_interrupt>:
  b0:	0c 94 00 00 	jmp	0	; 0x0 <__vectors>

000000b4 <refreshPORT>:
	}
}
/****************************************/
// NON-Interrupt subroutines
void refreshPORT(uint8_t valor){
	if(valor & 0b10000000){
  b4:	88 23       	and	r24, r24
  b6:	24 f4       	brge	.+8      	; 0xc0 <refreshPORT+0xc>
		PORTB |= (1<<PORTB1);
  b8:	95 b1       	in	r25, 0x05	; 5
  ba:	92 60       	ori	r25, 0x02	; 2
  bc:	95 b9       	out	0x05, r25	; 5
  be:	03 c0       	rjmp	.+6      	; 0xc6 <refreshPORT+0x12>
	}
	else{
		PORTB &= ~(1<<PORTB1);
  c0:	95 b1       	in	r25, 0x05	; 5
  c2:	9d 7f       	andi	r25, 0xFD	; 253
  c4:	95 b9       	out	0x05, r25	; 5
	}
	if(valor & 0b01000000){
  c6:	86 ff       	sbrs	r24, 6
  c8:	04 c0       	rjmp	.+8      	; 0xd2 <refreshPORT+0x1e>
		PORTB |= (1<<PORTB0);
  ca:	95 b1       	in	r25, 0x05	; 5
  cc:	91 60       	ori	r25, 0x01	; 1
  ce:	95 b9       	out	0x05, r25	; 5
  d0:	03 c0       	rjmp	.+6      	; 0xd8 <refreshPORT+0x24>
	}
	else{
		PORTB &= ~(1<<PORTB0);
  d2:	95 b1       	in	r25, 0x05	; 5
  d4:	9e 7f       	andi	r25, 0xFE	; 254
  d6:	95 b9       	out	0x05, r25	; 5
	}
	if(valor & 0b00100000){
  d8:	85 ff       	sbrs	r24, 5
  da:	04 c0       	rjmp	.+8      	; 0xe4 <refreshPORT+0x30>
		PORTD |= (1<<PORTD7);
  dc:	9b b1       	in	r25, 0x0b	; 11
  de:	90 68       	ori	r25, 0x80	; 128
  e0:	9b b9       	out	0x0b, r25	; 11
  e2:	03 c0       	rjmp	.+6      	; 0xea <refreshPORT+0x36>
	}
	else{
		PORTD &= ~(1<<PORTD7);
  e4:	9b b1       	in	r25, 0x0b	; 11
  e6:	9f 77       	andi	r25, 0x7F	; 127
  e8:	9b b9       	out	0x0b, r25	; 11
	}
	if(valor & 0b00010000){
  ea:	84 ff       	sbrs	r24, 4
  ec:	04 c0       	rjmp	.+8      	; 0xf6 <refreshPORT+0x42>
		PORTD |= (1<<PORTD6);
  ee:	9b b1       	in	r25, 0x0b	; 11
  f0:	90 64       	ori	r25, 0x40	; 64
  f2:	9b b9       	out	0x0b, r25	; 11
  f4:	03 c0       	rjmp	.+6      	; 0xfc <refreshPORT+0x48>
	}
	else{
		PORTD &= ~(1<<PORTD6);
  f6:	9b b1       	in	r25, 0x0b	; 11
  f8:	9f 7b       	andi	r25, 0xBF	; 191
  fa:	9b b9       	out	0x0b, r25	; 11
	}
	if(valor & 0b00001000){
  fc:	83 ff       	sbrs	r24, 3
  fe:	04 c0       	rjmp	.+8      	; 0x108 <refreshPORT+0x54>
		PORTD |= (1<<PORTD5);
 100:	9b b1       	in	r25, 0x0b	; 11
 102:	90 62       	ori	r25, 0x20	; 32
 104:	9b b9       	out	0x0b, r25	; 11
 106:	03 c0       	rjmp	.+6      	; 0x10e <refreshPORT+0x5a>
	}
	else{
		PORTD &= ~(1<<PORTD5);
 108:	9b b1       	in	r25, 0x0b	; 11
 10a:	9f 7d       	andi	r25, 0xDF	; 223
 10c:	9b b9       	out	0x0b, r25	; 11
	}
	if(valor & 0b00000100){
 10e:	82 ff       	sbrs	r24, 2
 110:	04 c0       	rjmp	.+8      	; 0x11a <refreshPORT+0x66>
		PORTD |= (1<<PORTD4);
 112:	9b b1       	in	r25, 0x0b	; 11
 114:	90 61       	ori	r25, 0x10	; 16
 116:	9b b9       	out	0x0b, r25	; 11
 118:	03 c0       	rjmp	.+6      	; 0x120 <refreshPORT+0x6c>
	}
	else{
		PORTD &= ~(1<<PORTD4);
 11a:	9b b1       	in	r25, 0x0b	; 11
 11c:	9f 7e       	andi	r25, 0xEF	; 239
 11e:	9b b9       	out	0x0b, r25	; 11
	}
	if(valor & 0b00000010){
 120:	81 ff       	sbrs	r24, 1
 122:	04 c0       	rjmp	.+8      	; 0x12c <refreshPORT+0x78>
		PORTD |= (1<<PORTD3);
 124:	9b b1       	in	r25, 0x0b	; 11
 126:	98 60       	ori	r25, 0x08	; 8
 128:	9b b9       	out	0x0b, r25	; 11
 12a:	03 c0       	rjmp	.+6      	; 0x132 <refreshPORT+0x7e>
	}
	else{
		PORTD &= ~(1<<PORTD3);
 12c:	9b b1       	in	r25, 0x0b	; 11
 12e:	97 7f       	andi	r25, 0xF7	; 247
 130:	9b b9       	out	0x0b, r25	; 11
	}
	if(valor & 0b00000001){
 132:	80 ff       	sbrs	r24, 0
 134:	04 c0       	rjmp	.+8      	; 0x13e <refreshPORT+0x8a>
		PORTD |= (1<<PORTD2);
 136:	8b b1       	in	r24, 0x0b	; 11
 138:	84 60       	ori	r24, 0x04	; 4
 13a:	8b b9       	out	0x0b, r24	; 11
 13c:	08 95       	ret
	}
	else{
		PORTD &= ~(1<<PORTD2);
 13e:	8b b1       	in	r24, 0x0b	; 11
 140:	8b 7f       	andi	r24, 0xFB	; 251
 142:	8b b9       	out	0x0b, r24	; 11
 144:	08 95       	ret

00000146 <setup>:
	}
	
}
void setup(){
	concatenacion[0] = '\0';
 146:	10 92 3d 01 	sts	0x013D, r1	; 0x80013d <concatenacion>
	DDRC |= (1<<DDC5);
 14a:	87 b1       	in	r24, 0x07	; 7
 14c:	80 62       	ori	r24, 0x20	; 32
 14e:	87 b9       	out	0x07, r24	; 7
	DDRD |= (1<<DDD2)|(1<<DDD3)|(1<<DDD4)|(1<<DDD5)|(1<<DDD6)|(1<<DDD7);
 150:	8a b1       	in	r24, 0x0a	; 10
 152:	8c 6f       	ori	r24, 0xFC	; 252
 154:	8a b9       	out	0x0a, r24	; 10
	DDRB |= (1<<DDB0)|(1<<DDB1);
 156:	84 b1       	in	r24, 0x04	; 4
 158:	83 60       	ori	r24, 0x03	; 3
 15a:	84 b9       	out	0x04, r24	; 4
	
	
	//MSS para seleccionar el slave
	PORTC |= (1<<PORTC5);
 15c:	88 b1       	in	r24, 0x08	; 8
 15e:	80 62       	ori	r24, 0x20	; 32
 160:	88 b9       	out	0x08, r24	; 8
	//limpiando el puerto de leds = 0
	PORTB &= ~((1<< PORTB0)|(1<<PORTB1));
 162:	85 b1       	in	r24, 0x05	; 5
 164:	8c 7f       	andi	r24, 0xFC	; 252
 166:	85 b9       	out	0x05, r24	; 5
	PORTD &= ~((1<<DDD2)|(1<<DDD3)|(1<<DDD4)|(1<<DDD5)|(1<<DDD6)|(1<<DDD7));
 168:	8b b1       	in	r24, 0x0b	; 11
 16a:	83 70       	andi	r24, 0x03	; 3
 16c:	8b b9       	out	0x0b, r24	; 11
 16e:	08 95       	ret

00000170 <main>:
void setup(void);
/****************************************/
// Main Function
int main(void)
{
	setup();
 170:	0e 94 a3 00 	call	0x146	; 0x146 <setup>
	UART_RECEIVER(103);
 174:	87 e6       	ldi	r24, 0x67	; 103
 176:	0e 94 d9 01 	call	0x3b2	; 0x3b2 <UART_RECEIVER>
	SPIinit(SPI_MASTER_OSC_DIV128, SPI_DATA_ORDER_MSB, SPI_CLOCK_IDLE_LOW, SPI_CLOCK_FIRST_EDGE);
 17a:	20 e0       	ldi	r18, 0x00	; 0
 17c:	40 e0       	ldi	r20, 0x00	; 0
 17e:	60 e2       	ldi	r22, 0x20	; 32
 180:	86 e5       	ldi	r24, 0x56	; 86
 182:	0e 94 6e 01 	call	0x2dc	; 0x2dc <SPIinit>
	sei();
 186:	78 94       	sei
	while (1)
	{
		PORTC &= ~(1<<PORTC5);          // CS LOW
 188:	88 b1       	in	r24, 0x08	; 8
 18a:	8f 7d       	andi	r24, 0xDF	; 223
 18c:	88 b9       	out	0x08, r24	; 8

		SPItransfer('c');               // comando
 18e:	83 e6       	ldi	r24, 0x63	; 99
 190:	0e 94 d3 01 	call	0x3a6	; 0x3a6 <SPItransfer>
		valorSPI = SPItransfer(0x00);   // dummy para leer respuesta (POT1)
 194:	80 e0       	ldi	r24, 0x00	; 0
 196:	0e 94 d3 01 	call	0x3a6	; 0x3a6 <SPItransfer>
 19a:	80 93 31 01 	sts	0x0131, r24	; 0x800131 <valorSPI>

		utoa(valorSPI, buf, 10);
 19e:	80 91 31 01 	lds	r24, 0x0131	; 0x800131 <valorSPI>
    } else if (__radix < 2 || __radix > 36) {
	*__s = 0;
	return __s;
    } else {
	extern char *__utoa_ncheck (unsigned int, char *, unsigned char);
	return __utoa_ncheck (__val, __s, __radix);
 1a2:	4a e0       	ldi	r20, 0x0A	; 10
 1a4:	63 e3       	ldi	r22, 0x33	; 51
 1a6:	71 e0       	ldi	r23, 0x01	; 1
 1a8:	90 e0       	ldi	r25, 0x00	; 0
 1aa:	0e 94 33 02 	call	0x466	; 0x466 <__utoa_ncheck>
		cadena("Valor POT 1: ");
 1ae:	80 e0       	ldi	r24, 0x00	; 0
 1b0:	91 e0       	ldi	r25, 0x01	; 1
 1b2:	0e 94 f4 01 	call	0x3e8	; 0x3e8 <cadena>
		cadena(buf);
 1b6:	83 e3       	ldi	r24, 0x33	; 51
 1b8:	91 e0       	ldi	r25, 0x01	; 1
 1ba:	0e 94 f4 01 	call	0x3e8	; 0x3e8 <cadena>
		cadena("\r\n");
 1be:	8b e2       	ldi	r24, 0x2B	; 43
 1c0:	91 e0       	ldi	r25, 0x01	; 1
 1c2:	0e 94 f4 01 	call	0x3e8	; 0x3e8 <cadena>

		PORTC |= (1<<PORTC5);           // CS HIGH
 1c6:	88 b1       	in	r24, 0x08	; 8
 1c8:	80 62       	ori	r24, 0x20	; 32
 1ca:	88 b9       	out	0x08, r24	; 8

		//
		PORTC &= ~(1<<PORTC5);          // CS LOW
 1cc:	88 b1       	in	r24, 0x08	; 8
 1ce:	8f 7d       	andi	r24, 0xDF	; 223
 1d0:	88 b9       	out	0x08, r24	; 8

		SPItransfer('d');               // comando
 1d2:	84 e6       	ldi	r24, 0x64	; 100
 1d4:	0e 94 d3 01 	call	0x3a6	; 0x3a6 <SPItransfer>
		valorSPI = SPItransfer(0x00);   // dummy para leer respuesta (POT2)
 1d8:	80 e0       	ldi	r24, 0x00	; 0
 1da:	0e 94 d3 01 	call	0x3a6	; 0x3a6 <SPItransfer>
 1de:	80 93 31 01 	sts	0x0131, r24	; 0x800131 <valorSPI>

		utoa(valorSPI, buf, 10);
 1e2:	80 91 31 01 	lds	r24, 0x0131	; 0x800131 <valorSPI>
 1e6:	4a e0       	ldi	r20, 0x0A	; 10
 1e8:	63 e3       	ldi	r22, 0x33	; 51
 1ea:	71 e0       	ldi	r23, 0x01	; 1
 1ec:	90 e0       	ldi	r25, 0x00	; 0
 1ee:	0e 94 33 02 	call	0x466	; 0x466 <__utoa_ncheck>
		cadena("Valor POT 2: ");
 1f2:	8e e0       	ldi	r24, 0x0E	; 14
 1f4:	91 e0       	ldi	r25, 0x01	; 1
 1f6:	0e 94 f4 01 	call	0x3e8	; 0x3e8 <cadena>
		cadena(buf);
 1fa:	83 e3       	ldi	r24, 0x33	; 51
 1fc:	91 e0       	ldi	r25, 0x01	; 1
 1fe:	0e 94 f4 01 	call	0x3e8	; 0x3e8 <cadena>
		cadena("\r\n");
 202:	8b e2       	ldi	r24, 0x2B	; 43
 204:	91 e0       	ldi	r25, 0x01	; 1
 206:	0e 94 f4 01 	call	0x3e8	; 0x3e8 <cadena>

		PORTC |= (1<<PORTC5);           // CS HIGH
 20a:	88 b1       	in	r24, 0x08	; 8
 20c:	80 62       	ori	r24, 0x20	; 32
 20e:	88 b9       	out	0x08, r24	; 8
	#else
		//round up by default
		__ticks_dc = (uint32_t)(ceil(fabs(__tmp)));
	#endif

	__builtin_avr_delay_cycles(__ticks_dc);
 210:	2f ef       	ldi	r18, 0xFF	; 255
 212:	80 e7       	ldi	r24, 0x70	; 112
 214:	92 e0       	ldi	r25, 0x02	; 2
 216:	21 50       	subi	r18, 0x01	; 1
 218:	80 40       	sbci	r24, 0x00	; 0
 21a:	90 40       	sbci	r25, 0x00	; 0
 21c:	e1 f7       	brne	.-8      	; 0x216 <main+0xa6>
 21e:	00 c0       	rjmp	.+0      	; 0x220 <main+0xb0>
 220:	00 00       	nop
 222:	b2 cf       	rjmp	.-156    	; 0x188 <main+0x18>

00000224 <__vector_18>:
	PORTB &= ~((1<< PORTB0)|(1<<PORTB1));
	PORTD &= ~((1<<DDD2)|(1<<DDD3)|(1<<DDD4)|(1<<DDD5)|(1<<DDD6)|(1<<DDD7));
}	
/****************************************/
// Interrupt routines
ISR(USART_RX_vect){
 224:	1f 92       	push	r1
 226:	0f 92       	push	r0
 228:	0f b6       	in	r0, 0x3f	; 63
 22a:	0f 92       	push	r0
 22c:	11 24       	eor	r1, r1
 22e:	2f 93       	push	r18
 230:	3f 93       	push	r19
 232:	4f 93       	push	r20
 234:	5f 93       	push	r21
 236:	6f 93       	push	r22
 238:	7f 93       	push	r23
 23a:	8f 93       	push	r24
 23c:	9f 93       	push	r25
 23e:	af 93       	push	r26
 240:	bf 93       	push	r27
 242:	ef 93       	push	r30
 244:	ff 93       	push	r31
	dato = UDR0;
 246:	80 91 c6 00 	lds	r24, 0x00C6	; 0x8000c6 <__TEXT_REGION_LENGTH__+0x7f80c6>
 24a:	80 93 30 01 	sts	0x0130, r24	; 0x800130 <dato>
	if(dato == '\n'){             
 24e:	8a 30       	cpi	r24, 0x0A	; 10
 250:	01 f5       	brne	.+64     	; 0x292 <__vector_18+0x6e>
		conversion = atoi(&concatenacion[0]);
 252:	8d e3       	ldi	r24, 0x3D	; 61
 254:	91 e0       	ldi	r25, 0x01	; 1
 256:	0e 94 0d 02 	call	0x41a	; 0x41a <atoi>
 25a:	80 93 2f 01 	sts	0x012F, r24	; 0x80012f <conversion>
		cadena("Numero recibido\r\n");
 25e:	8c e1       	ldi	r24, 0x1C	; 28
 260:	91 e0       	ldi	r25, 0x01	; 1
 262:	0e 94 f4 01 	call	0x3e8	; 0x3e8 <cadena>
		refreshPORT(conversion);
 266:	80 91 2f 01 	lds	r24, 0x012F	; 0x80012f <conversion>
 26a:	0e 94 5a 00 	call	0xb4	; 0xb4 <refreshPORT>
        // Mandar el mismo valor al esclavo para que lo muestre en sus LEDs
        PORTC &= ~(1<<PORTC5);      // CS LOW
 26e:	88 b1       	in	r24, 0x08	; 8
 270:	8f 7d       	andi	r24, 0xDF	; 223
 272:	88 b9       	out	0x08, r24	; 8
        SPItransfer('L');           // comando: "LED"
 274:	8c e4       	ldi	r24, 0x4C	; 76
 276:	0e 94 d3 01 	call	0x3a6	; 0x3a6 <SPItransfer>
        SPItransfer(conversion);    // dato
 27a:	80 91 2f 01 	lds	r24, 0x012F	; 0x80012f <conversion>
 27e:	0e 94 d3 01 	call	0x3a6	; 0x3a6 <SPItransfer>
        PORTC |= (1<<PORTC5);       // CS HIGH
 282:	88 b1       	in	r24, 0x08	; 8
 284:	80 62       	ori	r24, 0x20	; 32
 286:	88 b9       	out	0x08, r24	; 8

		posicion = 0;
 288:	10 92 2e 01 	sts	0x012E, r1	; 0x80012e <__data_end>
		concatenacion[0] = '\0';
 28c:	10 92 3d 01 	sts	0x013D, r1	; 0x80013d <concatenacion>
 290:	14 c0       	rjmp	.+40     	; 0x2ba <__vector_18+0x96>
	}
	else if(posicion < 9){
 292:	90 91 2e 01 	lds	r25, 0x012E	; 0x80012e <__data_end>
 296:	99 30       	cpi	r25, 0x09	; 9
 298:	80 f4       	brcc	.+32     	; 0x2ba <__vector_18+0x96>
		concatenacion[posicion++] = dato;
 29a:	e0 91 2e 01 	lds	r30, 0x012E	; 0x80012e <__data_end>
 29e:	91 e0       	ldi	r25, 0x01	; 1
 2a0:	9e 0f       	add	r25, r30
 2a2:	90 93 2e 01 	sts	0x012E, r25	; 0x80012e <__data_end>
 2a6:	f0 e0       	ldi	r31, 0x00	; 0
 2a8:	e3 5c       	subi	r30, 0xC3	; 195
 2aa:	fe 4f       	sbci	r31, 0xFE	; 254
 2ac:	80 83       	st	Z, r24
		concatenacion[posicion] = '\0';
 2ae:	e0 91 2e 01 	lds	r30, 0x012E	; 0x80012e <__data_end>
 2b2:	f0 e0       	ldi	r31, 0x00	; 0
 2b4:	e3 5c       	subi	r30, 0xC3	; 195
 2b6:	fe 4f       	sbci	r31, 0xFE	; 254
 2b8:	10 82       	st	Z, r1
	}
 2ba:	ff 91       	pop	r31
 2bc:	ef 91       	pop	r30
 2be:	bf 91       	pop	r27
 2c0:	af 91       	pop	r26
 2c2:	9f 91       	pop	r25
 2c4:	8f 91       	pop	r24
 2c6:	7f 91       	pop	r23
 2c8:	6f 91       	pop	r22
 2ca:	5f 91       	pop	r21
 2cc:	4f 91       	pop	r20
 2ce:	3f 91       	pop	r19
 2d0:	2f 91       	pop	r18
 2d2:	0f 90       	pop	r0
 2d4:	0f be       	out	0x3f, r0	; 63
 2d6:	0f 90       	pop	r0
 2d8:	1f 90       	pop	r1
 2da:	18 95       	reti

000002dc <SPIinit>:
	return 0;
}
uint8_t spiRead(void){ //lee la informacion recibida
	while(!(SPSR & (1<<SPIF))); //esperar a la informacion este completa
	return(SPDR); //leer la informacion recibida desde el buffer
}
 2dc:	e8 2f       	mov	r30, r24
 2de:	84 ff       	sbrs	r24, 4
 2e0:	52 c0       	rjmp	.+164    	; 0x386 <SPIinit+0xaa>
 2e2:	84 b1       	in	r24, 0x04	; 4
 2e4:	8c 62       	ori	r24, 0x2C	; 44
 2e6:	84 b9       	out	0x04, r24	; 4
 2e8:	84 b1       	in	r24, 0x04	; 4
 2ea:	8f 7e       	andi	r24, 0xEF	; 239
 2ec:	84 b9       	out	0x04, r24	; 4
 2ee:	8c b5       	in	r24, 0x2c	; 44
 2f0:	80 61       	ori	r24, 0x10	; 16
 2f2:	8c bd       	out	0x2c, r24	; 44
 2f4:	e7 70       	andi	r30, 0x07	; 7
 2f6:	8e 2f       	mov	r24, r30
 2f8:	90 e0       	ldi	r25, 0x00	; 0
 2fa:	87 30       	cpi	r24, 0x07	; 7
 2fc:	91 05       	cpc	r25, r1
 2fe:	08 f0       	brcs	.+2      	; 0x302 <SPIinit+0x26>
 300:	4b c0       	rjmp	.+150    	; 0x398 <SPIinit+0xbc>
 302:	fc 01       	movw	r30, r24
 304:	ec 5c       	subi	r30, 0xCC	; 204
 306:	ff 4f       	sbci	r31, 0xFF	; 255
 308:	0c 94 07 02 	jmp	0x40e	; 0x40e <__tablejump2__>
 30c:	8c b5       	in	r24, 0x2c	; 44
 30e:	8c 7f       	andi	r24, 0xFC	; 252
 310:	8c bd       	out	0x2c, r24	; 44
 312:	8d b5       	in	r24, 0x2d	; 45
 314:	81 60       	ori	r24, 0x01	; 1
 316:	8d bd       	out	0x2d, r24	; 45
 318:	3f c0       	rjmp	.+126    	; 0x398 <SPIinit+0xbc>
 31a:	8c b5       	in	r24, 0x2c	; 44
 31c:	8c 7f       	andi	r24, 0xFC	; 252
 31e:	8c bd       	out	0x2c, r24	; 44
 320:	8d b5       	in	r24, 0x2d	; 45
 322:	8e 7f       	andi	r24, 0xFE	; 254
 324:	8d bd       	out	0x2d, r24	; 45
 326:	38 c0       	rjmp	.+112    	; 0x398 <SPIinit+0xbc>
 328:	8c b5       	in	r24, 0x2c	; 44
 32a:	81 60       	ori	r24, 0x01	; 1
 32c:	8c bd       	out	0x2c, r24	; 44
 32e:	8c b5       	in	r24, 0x2c	; 44
 330:	8d 7f       	andi	r24, 0xFD	; 253
 332:	8c bd       	out	0x2c, r24	; 44
 334:	8d b5       	in	r24, 0x2d	; 45
 336:	81 60       	ori	r24, 0x01	; 1
 338:	8d bd       	out	0x2d, r24	; 45
 33a:	2e c0       	rjmp	.+92     	; 0x398 <SPIinit+0xbc>
 33c:	8c b5       	in	r24, 0x2c	; 44
 33e:	81 60       	ori	r24, 0x01	; 1
 340:	8c bd       	out	0x2c, r24	; 44
 342:	8c b5       	in	r24, 0x2c	; 44
 344:	8d 7f       	andi	r24, 0xFD	; 253
 346:	8c bd       	out	0x2c, r24	; 44
 348:	8d b5       	in	r24, 0x2d	; 45
 34a:	8e 7f       	andi	r24, 0xFE	; 254
 34c:	8d bd       	out	0x2d, r24	; 45
 34e:	24 c0       	rjmp	.+72     	; 0x398 <SPIinit+0xbc>
 350:	8c b5       	in	r24, 0x2c	; 44
 352:	8e 7f       	andi	r24, 0xFE	; 254
 354:	8c bd       	out	0x2c, r24	; 44
 356:	8c b5       	in	r24, 0x2c	; 44
 358:	82 60       	ori	r24, 0x02	; 2
 35a:	8c bd       	out	0x2c, r24	; 44
 35c:	8d b5       	in	r24, 0x2d	; 45
 35e:	81 60       	ori	r24, 0x01	; 1
 360:	8d bd       	out	0x2d, r24	; 45
 362:	1a c0       	rjmp	.+52     	; 0x398 <SPIinit+0xbc>
 364:	8c b5       	in	r24, 0x2c	; 44
 366:	8e 7f       	andi	r24, 0xFE	; 254
 368:	8c bd       	out	0x2c, r24	; 44
 36a:	8c b5       	in	r24, 0x2c	; 44
 36c:	82 60       	ori	r24, 0x02	; 2
 36e:	8c bd       	out	0x2c, r24	; 44
 370:	8d b5       	in	r24, 0x2d	; 45
 372:	8e 7f       	andi	r24, 0xFE	; 254
 374:	8d bd       	out	0x2d, r24	; 45
 376:	10 c0       	rjmp	.+32     	; 0x398 <SPIinit+0xbc>
 378:	8c b5       	in	r24, 0x2c	; 44
 37a:	83 60       	ori	r24, 0x03	; 3
 37c:	8c bd       	out	0x2c, r24	; 44
 37e:	8d b5       	in	r24, 0x2d	; 45
 380:	8e 7f       	andi	r24, 0xFE	; 254
 382:	8d bd       	out	0x2d, r24	; 45
 384:	09 c0       	rjmp	.+18     	; 0x398 <SPIinit+0xbc>
 386:	84 b1       	in	r24, 0x04	; 4
 388:	80 61       	ori	r24, 0x10	; 16
 38a:	84 b9       	out	0x04, r24	; 4
 38c:	84 b1       	in	r24, 0x04	; 4
 38e:	83 7d       	andi	r24, 0xD3	; 211
 390:	84 b9       	out	0x04, r24	; 4
 392:	8c b5       	in	r24, 0x2c	; 44
 394:	8f 7e       	andi	r24, 0xEF	; 239
 396:	8c bd       	out	0x2c, r24	; 44
 398:	8c b5       	in	r24, 0x2c	; 44
 39a:	46 2b       	or	r20, r22
 39c:	24 2b       	or	r18, r20
 39e:	28 2b       	or	r18, r24
 3a0:	20 64       	ori	r18, 0x40	; 64
 3a2:	2c bd       	out	0x2c, r18	; 44
 3a4:	08 95       	ret

000003a6 <SPItransfer>:

uint8_t SPItransfer(uint8_t dat){
    SPDR = dat;                         // carga byte a enviar
 3a6:	8e bd       	out	0x2e, r24	; 46
    while(!(SPSR & (1<<SPIF)));         // espera fin de transferencia
 3a8:	0d b4       	in	r0, 0x2d	; 45
 3aa:	07 fe       	sbrs	r0, 7
 3ac:	fd cf       	rjmp	.-6      	; 0x3a8 <SPItransfer+0x2>
    return SPDR;                        // devuelve lo recibido
 3ae:	8e b5       	in	r24, 0x2e	; 46
}
 3b0:	08 95       	ret

000003b2 <UART_RECEIVER>:
 3b2:	9a b1       	in	r25, 0x0a	; 10
 3b4:	92 60       	ori	r25, 0x02	; 2
 3b6:	9a b9       	out	0x0a, r25	; 10
 3b8:	9a b1       	in	r25, 0x0a	; 10
 3ba:	9e 7f       	andi	r25, 0xFE	; 254
 3bc:	9a b9       	out	0x0a, r25	; 10
 3be:	10 92 c0 00 	sts	0x00C0, r1	; 0x8000c0 <__TEXT_REGION_LENGTH__+0x7f80c0>
 3c2:	98 e9       	ldi	r25, 0x98	; 152
 3c4:	90 93 c1 00 	sts	0x00C1, r25	; 0x8000c1 <__TEXT_REGION_LENGTH__+0x7f80c1>
 3c8:	96 e0       	ldi	r25, 0x06	; 6
 3ca:	90 93 c2 00 	sts	0x00C2, r25	; 0x8000c2 <__TEXT_REGION_LENGTH__+0x7f80c2>
 3ce:	90 e0       	ldi	r25, 0x00	; 0
 3d0:	90 93 c5 00 	sts	0x00C5, r25	; 0x8000c5 <__TEXT_REGION_LENGTH__+0x7f80c5>
 3d4:	80 93 c4 00 	sts	0x00C4, r24	; 0x8000c4 <__TEXT_REGION_LENGTH__+0x7f80c4>
 3d8:	08 95       	ret

000003da <writechar>:
 3da:	90 91 c0 00 	lds	r25, 0x00C0	; 0x8000c0 <__TEXT_REGION_LENGTH__+0x7f80c0>
 3de:	95 ff       	sbrs	r25, 5
 3e0:	fc cf       	rjmp	.-8      	; 0x3da <writechar>
 3e2:	80 93 c6 00 	sts	0x00C6, r24	; 0x8000c6 <__TEXT_REGION_LENGTH__+0x7f80c6>
 3e6:	08 95       	ret

000003e8 <cadena>:
 3e8:	0f 93       	push	r16
 3ea:	1f 93       	push	r17
 3ec:	cf 93       	push	r28
 3ee:	8c 01       	movw	r16, r24
 3f0:	c0 e0       	ldi	r28, 0x00	; 0
 3f2:	03 c0       	rjmp	.+6      	; 0x3fa <cadena+0x12>
 3f4:	0e 94 ed 01 	call	0x3da	; 0x3da <writechar>
 3f8:	cf 5f       	subi	r28, 0xFF	; 255
 3fa:	f8 01       	movw	r30, r16
 3fc:	ec 0f       	add	r30, r28
 3fe:	f1 1d       	adc	r31, r1
 400:	80 81       	ld	r24, Z
 402:	81 11       	cpse	r24, r1
 404:	f7 cf       	rjmp	.-18     	; 0x3f4 <cadena+0xc>
 406:	cf 91       	pop	r28
 408:	1f 91       	pop	r17
 40a:	0f 91       	pop	r16
 40c:	08 95       	ret

0000040e <__tablejump2__>:
 40e:	ee 0f       	add	r30, r30
 410:	ff 1f       	adc	r31, r31
 412:	05 90       	lpm	r0, Z+
 414:	f4 91       	lpm	r31, Z
 416:	e0 2d       	mov	r30, r0
 418:	09 94       	ijmp

0000041a <atoi>:
 41a:	fc 01       	movw	r30, r24
 41c:	88 27       	eor	r24, r24
 41e:	99 27       	eor	r25, r25
 420:	e8 94       	clt
 422:	21 91       	ld	r18, Z+
 424:	20 32       	cpi	r18, 0x20	; 32
 426:	e9 f3       	breq	.-6      	; 0x422 <atoi+0x8>
 428:	29 30       	cpi	r18, 0x09	; 9
 42a:	10 f0       	brcs	.+4      	; 0x430 <atoi+0x16>
 42c:	2e 30       	cpi	r18, 0x0E	; 14
 42e:	c8 f3       	brcs	.-14     	; 0x422 <atoi+0x8>
 430:	2b 32       	cpi	r18, 0x2B	; 43
 432:	41 f0       	breq	.+16     	; 0x444 <atoi+0x2a>
 434:	2d 32       	cpi	r18, 0x2D	; 45
 436:	39 f4       	brne	.+14     	; 0x446 <atoi+0x2c>
 438:	68 94       	set
 43a:	04 c0       	rjmp	.+8      	; 0x444 <atoi+0x2a>
 43c:	0e 94 2b 02 	call	0x456	; 0x456 <__mulhi_const_10>
 440:	82 0f       	add	r24, r18
 442:	91 1d       	adc	r25, r1
 444:	21 91       	ld	r18, Z+
 446:	20 53       	subi	r18, 0x30	; 48
 448:	2a 30       	cpi	r18, 0x0A	; 10
 44a:	c0 f3       	brcs	.-16     	; 0x43c <atoi+0x22>
 44c:	1e f4       	brtc	.+6      	; 0x454 <atoi+0x3a>
 44e:	90 95       	com	r25
 450:	81 95       	neg	r24
 452:	9f 4f       	sbci	r25, 0xFF	; 255
 454:	08 95       	ret

00000456 <__mulhi_const_10>:
 456:	7a e0       	ldi	r23, 0x0A	; 10
 458:	97 9f       	mul	r25, r23
 45a:	90 2d       	mov	r25, r0
 45c:	87 9f       	mul	r24, r23
 45e:	80 2d       	mov	r24, r0
 460:	91 0d       	add	r25, r1
 462:	11 24       	eor	r1, r1
 464:	08 95       	ret

00000466 <__utoa_ncheck>:
 466:	bb 27       	eor	r27, r27

00000468 <__utoa_common>:
 468:	fb 01       	movw	r30, r22
 46a:	55 27       	eor	r21, r21
 46c:	aa 27       	eor	r26, r26
 46e:	88 0f       	add	r24, r24
 470:	99 1f       	adc	r25, r25
 472:	aa 1f       	adc	r26, r26
 474:	a4 17       	cp	r26, r20
 476:	10 f0       	brcs	.+4      	; 0x47c <__utoa_common+0x14>
 478:	a4 1b       	sub	r26, r20
 47a:	83 95       	inc	r24
 47c:	50 51       	subi	r21, 0x10	; 16
 47e:	b9 f7       	brne	.-18     	; 0x46e <__utoa_common+0x6>
 480:	a0 5d       	subi	r26, 0xD0	; 208
 482:	aa 33       	cpi	r26, 0x3A	; 58
 484:	08 f0       	brcs	.+2      	; 0x488 <__utoa_common+0x20>
 486:	a9 5d       	subi	r26, 0xD9	; 217
 488:	a1 93       	st	Z+, r26
 48a:	00 97       	sbiw	r24, 0x00	; 0
 48c:	79 f7       	brne	.-34     	; 0x46c <__utoa_common+0x4>
 48e:	b1 11       	cpse	r27, r1
 490:	b1 93       	st	Z+, r27
 492:	11 92       	st	Z+, r1
 494:	cb 01       	movw	r24, r22
 496:	0c 94 4d 02 	jmp	0x49a	; 0x49a <strrev>

0000049a <strrev>:
 49a:	dc 01       	movw	r26, r24
 49c:	fc 01       	movw	r30, r24
 49e:	67 2f       	mov	r22, r23
 4a0:	71 91       	ld	r23, Z+
 4a2:	77 23       	and	r23, r23
 4a4:	e1 f7       	brne	.-8      	; 0x49e <strrev+0x4>
 4a6:	32 97       	sbiw	r30, 0x02	; 2
 4a8:	04 c0       	rjmp	.+8      	; 0x4b2 <strrev+0x18>
 4aa:	7c 91       	ld	r23, X
 4ac:	6d 93       	st	X+, r22
 4ae:	70 83       	st	Z, r23
 4b0:	62 91       	ld	r22, -Z
 4b2:	ae 17       	cp	r26, r30
 4b4:	bf 07       	cpc	r27, r31
 4b6:	c8 f3       	brcs	.-14     	; 0x4aa <strrev+0x10>
 4b8:	08 95       	ret

000004ba <_exit>:
 4ba:	f8 94       	cli

000004bc <__stop_program>:
 4bc:	ff cf       	rjmp	.-2      	; 0x4bc <__stop_program>
